; Function Attrs: mustprogress nounwind uwtable
define internal void @_ZN9grpc_core12_GLOBAL__N_116XdsWrrLocalityLbD0Ev(ptr noundef nonnull align 8 dereferenceable(64) %this) unnamed_addr #9 align 2 personality ptr @__gxx_personality_v0 {
entry:
  store ptr getelementptr inbounds ({ [10 x ptr] }, ptr @_ZTVN9grpc_core12_GLOBAL__N_116XdsWrrLocalityLbE, i64 0, i32 0, i64 2), ptr %this, align 8
  %0 = load atomic i8, ptr getelementptr inbounds (%"class.grpc_core::TraceFlag", ptr @_ZN9grpc_core30grpc_xds_wrr_locality_lb_traceE, i64 0, i32 2, i32 0, i32 0) monotonic, align 8
  %1 = and i8 %0, 1
  %tobool.i.i.i.not.i = icmp eq i8 %1, 0
  br i1 %tobool.i.i.i.not.i, label %if.end.i, label %if.then.i

if.then.i:                                        ; preds = %entry
  invoke void (ptr, i32, i32, ptr, ...) @gpr_log(ptr noundef nonnull @.str.12, i32 noundef 141, i32 noundef 1, ptr noundef nonnull @.str.13, ptr noundef nonnull %this)
          to label %if.end.i unwind label %terminate.lpad.i

if.end.i:                                         ; preds = %if.then.i, %entry
  %child_policy_.i = getelementptr inbounds i8, ptr %this, i64 56
  %2 = load ptr, ptr %child_policy_.i, align 8
  %cmp.not.i.i = icmp eq ptr %2, null
  br i1 %cmp.not.i.i, label %_ZN9grpc_core12_GLOBAL__N_116XdsWrrLocalityLbD2Ev.exit, label %if.then.i.i

if.then.i.i:                                      ; preds = %if.end.i
  %vtable.i.i.i = load ptr, ptr %2, align 8
  %3 = load ptr, ptr %vtable.i.i.i, align 8
  invoke void %3(ptr noundef nonnull align 8 dereferenceable(56) %2)
          to label %_ZN9grpc_core12_GLOBAL__N_116XdsWrrLocalityLbD2Ev.exit unwind label %terminate.lpad.i.i

terminate.lpad.i.i:                               ; preds = %if.then.i.i
  %4 = landingpad { ptr, i32 }
          catch ptr null
  %5 = extractvalue { ptr, i32 } %4, 0
  tail call void @__clang_call_terminate(ptr %5) #21
  unreachable

terminate.lpad.i:                                 ; preds = %if.then.i
  %6 = landingpad { ptr, i32 }
          catch ptr null
  %7 = extractvalue { ptr, i32 } %6, 0
  tail call void @__clang_call_terminate(ptr %7) #21
  unreachable

_ZN9grpc_core12_GLOBAL__N_116XdsWrrLocalityLbD2Ev.exit: ; preds = %if.end.i, %if.then.i.i
  store ptr null, ptr %child_policy_.i, align 8
  tail call void @_ZN9grpc_core19LoadBalancingPolicyD2Ev(ptr noundef nonnull align 8 dereferenceable(56) %this) #20
  tail call void @_ZdlPv(ptr noundef nonnull %this) #23
  ret void
}